target datalayout = "e-m:e-p270:32:32-p271:32:32-p272:64:64-i64:64-i128:128-f80:128-n8:16:32:64-S128"
target triple = "x86_64-unknown-linux-gnu"

%struct.UText = type { i32, i32, i32, i32, i64, i32, i32, i64, i32, i32, ptr, ptr, ptr, ptr, ptr, ptr, ptr, ptr, i64, i32, i32, i64, i32, i32 }
%struct.UTextFuncs = type { i32, i32, i32, i32, ptr, ptr, ptr, ptr, ptr, ptr, ptr, ptr, ptr, ptr, ptr, ptr }

; Function Attrs: mustprogress nounwind uwtable
define internal noundef signext i8 @_ZL9U_FAILURE10UErrorCode(i32 noundef %code) #1 {
entry:
  %code.addr = alloca i32, align 4
  store i32 %code, ptr %code.addr, align 4
  %0 = load i32, ptr %code.addr, align 4
  %cmp = icmp sgt i32 %0, 0
  %conv = zext i1 %cmp to i8
  ret i8 %conv
}

; Function Attrs: mustprogress uwtable
define i32 @utext_replace_75(ptr noundef %ut, i64 noundef %nativeStart, i64 noundef %nativeLimit, ptr noundef %replacementText, i32 noundef %replacementLength, ptr noundef %status) #0 {
entry:
  %retval = alloca i32, align 4
  %ut.addr = alloca ptr, align 8
  %nativeStart.addr = alloca i64, align 8
  %nativeLimit.addr = alloca i64, align 8
  %replacementText.addr = alloca ptr, align 8
  %replacementLength.addr = alloca i32, align 4
  %status.addr = alloca ptr, align 8
  %i = alloca i32, align 4
  store ptr %ut, ptr %ut.addr, align 8
  store i64 %nativeStart, ptr %nativeStart.addr, align 8
  store i64 %nativeLimit, ptr %nativeLimit.addr, align 8
  store ptr %replacementText, ptr %replacementText.addr, align 8
  store i32 %replacementLength, ptr %replacementLength.addr, align 4
  store ptr %status, ptr %status.addr, align 8
  %0 = load ptr, ptr %status.addr, align 8
  %1 = load i32, ptr %0, align 4
  %call = call noundef signext i8 @_ZL9U_FAILURE10UErrorCode(i32 noundef %1)
  %tobool = icmp ne i8 %call, 0
  br i1 %tobool, label %if.then, label %if.end

if.then:                                          ; preds = %entry
  store i32 0, ptr %retval, align 4
  br label %return

if.end:                                           ; preds = %entry
  %2 = load ptr, ptr %ut.addr, align 8
  %providerProperties = getelementptr inbounds %struct.UText, ptr %2, i32 0, i32 2
  %3 = load i32, ptr %providerProperties, align 8
  %and = and i32 %3, 8
  %cmp = icmp eq i32 %and, 0
  br i1 %cmp, label %if.then1, label %if.end2

if.then1:                                         ; preds = %if.end
  %4 = load ptr, ptr %status.addr, align 8
  store i32 30, ptr %4, align 4
  store i32 0, ptr %retval, align 4
  br label %return

if.end2:                                          ; preds = %if.end
  %5 = load ptr, ptr %ut.addr, align 8
  %pFuncs = getelementptr inbounds %struct.UText, ptr %5, i32 0, i32 11
  %6 = load ptr, ptr %pFuncs, align 8
  %replace = getelementptr inbounds %struct.UTextFuncs, ptr %6, i32 0, i32 8
  %7 = load ptr, ptr %replace, align 8
  %8 = load ptr, ptr %ut.addr, align 8
  %9 = load i64, ptr %nativeStart.addr, align 8
  %10 = load i64, ptr %nativeLimit.addr, align 8
  %11 = load ptr, ptr %replacementText.addr, align 8
  %12 = load i32, ptr %replacementLength.addr, align 4
  %13 = load ptr, ptr %status.addr, align 8
  %call3 = call noundef i32 %7(ptr noundef %8, i64 noundef %9, i64 noundef %10, ptr noundef %11, i32 noundef %12, ptr noundef %13)
  store i32 %call3, ptr %i, align 4
  %14 = load i32, ptr %i, align 4
  store i32 %14, ptr %retval, align 4
  br label %return

return:                                           ; preds = %if.end2, %if.then1, %if.then
  %15 = load i32, ptr %retval, align 4
  ret i32 %15
}