; Function Attrs: mustprogress uwtable
define noundef i32 @utext_replace_75(ptr noundef %ut, i64 noundef %nativeStart, i64 noundef %nativeLimit, ptr noundef %replacementText, i32 noundef %replacementLength, ptr noundef %status) local_unnamed_addr #0 {
entry:
  %0 = load i32, ptr %status, align 4
  %cmp.i = icmp slt i32 %0, 1
  br i1 %cmp.i, label %if.end, label %return

if.end:                                           ; preds = %entry
  %providerProperties = getelementptr inbounds i8, ptr %ut, i64 8
  %1 = load i32, ptr %providerProperties, align 8
  %and = and i32 %1, 8
  %cmp = icmp eq i32 %and, 0
  br i1 %cmp, label %if.then1, label %if.end2

if.then1:                                         ; preds = %if.end
  store i32 30, ptr %status, align 4
  br label %return

if.end2:                                          ; preds = %if.end
  %pFuncs = getelementptr inbounds i8, ptr %ut, i64 56
  %2 = load ptr, ptr %pFuncs, align 8
  %replace = getelementptr inbounds i8, ptr %2, i64 48
  %3 = load ptr, ptr %replace, align 8
  %call3 = tail call noundef i32 %3(ptr noundef nonnull %ut, i64 noundef %nativeStart, i64 noundef %nativeLimit, ptr noundef %replacementText, i32 noundef %replacementLength, ptr noundef nonnull %status)
  br label %return

return:                                           ; preds = %entry, %if.end2, %if.then1
  %retval.0 = phi i32 [ 0, %if.then1 ], [ %call3, %if.end2 ], [ 0, %entry ]
  ret i32 %retval.0
}